target datalayout = "e-m:e-p270:32:32-p271:32:32-p272:64:64-i64:64-i128:128-f80:128-n8:16:32:64-S128"
target triple = "x86_64-pc-linux-gnu"

%struct.AVRational = type { i32, i32 }
%struct.V4L2Context = type { ptr, i32, i32, i32, %struct.v4l2_format, i32, i32, %struct.AVRational, ptr, i32, i32, i32 }
%struct.v4l2_format = type { i32, %union.anon }
%union.anon = type { %struct.v4l2_window, [144 x i8] }
%struct.v4l2_window = type { %struct.v4l2_rect, i32, i32, ptr, i32, ptr, i8 }
%struct.v4l2_rect = type { i32, i32, i32, i32 }
%struct.V4L2m2mContext = type { [4096 x i8], i32, %struct.V4L2Context, %struct.V4L2Context, ptr, %union.sem_t, i32, i32, i32, %struct.AVPacket, ptr, ptr, ptr }
%union.sem_t = type { i64, [24 x i8] }
%struct.AVPacket = type { ptr, i64, i64, ptr, i32, i32, i32, ptr, i32, i64, i64, ptr, ptr, %struct.AVRational }

; Function Attrs: inlinehint nounwind uwtable
define internal ptr @ctx_to_m2mctx(ptr noundef %0) #3 {
  %2 = alloca ptr, align 8
  %3 = alloca ptr, align 8
  %4 = alloca ptr, align 8
  %5 = alloca ptr, align 8
  %6 = alloca ptr, align 8
  store ptr %0, ptr %2, align 8, !tbaa !4
  %7 = load ptr, ptr %2, align 8, !tbaa !4
  %8 = getelementptr inbounds nuw %struct.V4L2Context, ptr %7, i32 0, i32 1
  %9 = load i32, ptr %8, align 8, !tbaa !11
  %10 = icmp eq i32 %9, 2
  br i1 %10, label %46, label %11

11:                                               ; preds = %1
  %12 = load ptr, ptr %2, align 8, !tbaa !4
  %13 = getelementptr inbounds nuw %struct.V4L2Context, ptr %12, i32 0, i32 1
  %14 = load i32, ptr %13, align 8, !tbaa !11
  %15 = icmp eq i32 %14, 10
  br i1 %15, label %46, label %16

16:                                               ; preds = %11
  %17 = load ptr, ptr %2, align 8, !tbaa !4
  %18 = getelementptr inbounds nuw %struct.V4L2Context, ptr %17, i32 0, i32 1
  %19 = load i32, ptr %18, align 8, !tbaa !11
  %20 = icmp eq i32 %19, 3
  br i1 %20, label %46, label %21

21:                                               ; preds = %16
  %22 = load ptr, ptr %2, align 8, !tbaa !4
  %23 = getelementptr inbounds nuw %struct.V4L2Context, ptr %22, i32 0, i32 1
  %24 = load i32, ptr %23, align 8, !tbaa !11
  %25 = icmp eq i32 %24, 8
  br i1 %25, label %46, label %26

26:                                               ; preds = %21
  %27 = load ptr, ptr %2, align 8, !tbaa !4
  %28 = getelementptr inbounds nuw %struct.V4L2Context, ptr %27, i32 0, i32 1
  %29 = load i32, ptr %28, align 8, !tbaa !11
  %30 = icmp eq i32 %29, 5
  br i1 %30, label %46, label %31

31:                                               ; preds = %26
  %32 = load ptr, ptr %2, align 8, !tbaa !4
  %33 = getelementptr inbounds nuw %struct.V4L2Context, ptr %32, i32 0, i32 1
  %34 = load i32, ptr %33, align 8, !tbaa !11
  %35 = icmp eq i32 %34, 7
  br i1 %35, label %46, label %36

36:                                               ; preds = %31
  %37 = load ptr, ptr %2, align 8, !tbaa !4
  %38 = getelementptr inbounds nuw %struct.V4L2Context, ptr %37, i32 0, i32 1
  %39 = load i32, ptr %38, align 8, !tbaa !11
  %40 = icmp eq i32 %39, 12
  br i1 %40, label %46, label %41

41:                                               ; preds = %36
  %42 = load ptr, ptr %2, align 8, !tbaa !4
  %43 = getelementptr inbounds nuw %struct.V4L2Context, ptr %42, i32 0, i32 1
  %44 = load i32, ptr %43, align 8, !tbaa !11
  %45 = icmp eq i32 %44, 14
  br i1 %45, label %46, label %51

46:                                               ; preds = %41, %36, %31, %26, %21, %16, %11, %1
  call void @llvm.lifetime.start.p0(i64 8, ptr %3) #8
  %47 = load ptr, ptr %2, align 8, !tbaa !4
  store ptr %47, ptr %3, align 8, !tbaa !4
  %48 = load ptr, ptr %3, align 8, !tbaa !4
  %49 = getelementptr inbounds i8, ptr %48, i64 -4376
  store ptr %49, ptr %4, align 8, !tbaa !27
  call void @llvm.lifetime.end.p0(i64 8, ptr %3) #8
  %50 = load ptr, ptr %4, align 8, !tbaa !27
  br label %56

51:                                               ; preds = %41
  call void @llvm.lifetime.start.p0(i64 8, ptr %5) #8
  %52 = load ptr, ptr %2, align 8, !tbaa !4
  store ptr %52, ptr %5, align 8, !tbaa !4
  %53 = load ptr, ptr %5, align 8, !tbaa !4
  %54 = getelementptr inbounds i8, ptr %53, i64 -4104
  store ptr %54, ptr %6, align 8, !tbaa !27
  call void @llvm.lifetime.end.p0(i64 8, ptr %5) #8
  %55 = load ptr, ptr %6, align 8, !tbaa !27
  br label %56

56:                                               ; preds = %51, %46
  %57 = phi ptr [ %50, %46 ], [ %55, %51 ]
  ret ptr %57
}

; Function Attrs: nounwind uwtable
define i32 @ff_v4l2_context_set_status(ptr noundef %0, i32 noundef %1) #0 {
  %3 = alloca i32, align 4
  %4 = alloca ptr, align 8
  %5 = alloca i32, align 4
  %6 = alloca i32, align 4
  %7 = alloca i32, align 4
  %8 = alloca i32, align 4
  store ptr %0, ptr %4, align 8, !tbaa !4
  store i32 %1, ptr %5, align 4, !tbaa !9
  call void @llvm.lifetime.start.p0(i64 4, ptr %6) #8
  %9 = load ptr, ptr %4, align 8, !tbaa !4
  %10 = getelementptr inbounds nuw %struct.V4L2Context, ptr %9, i32 0, i32 1
  %11 = load i32, ptr %10, align 8, !tbaa !11
  store i32 %11, ptr %6, align 4, !tbaa !9
  call void @llvm.lifetime.start.p0(i64 4, ptr %7) #8
  %12 = load ptr, ptr %4, align 8, !tbaa !4
  %13 = call ptr @ctx_to_m2mctx(ptr noundef %12)
  %14 = getelementptr inbounds nuw %struct.V4L2m2mContext, ptr %13, i32 0, i32 1
  %15 = load i32, ptr %14, align 8, !tbaa !17
  %16 = load i32, ptr %5, align 4, !tbaa !9
  %17 = zext i32 %16 to i64
  %18 = call i32 (i32, i64, ...) @ioctl(i32 noundef %15, i64 noundef %17, ptr noundef %6) #8
  store i32 %18, ptr %7, align 4, !tbaa !9
  %19 = load i32, ptr %7, align 4, !tbaa !9
  %20 = icmp slt i32 %19, 0
  br i1 %20, label %21, label %25

21:                                               ; preds = %2
  %22 = call ptr @__errno_location() #9
  %23 = load i32, ptr %22, align 4, !tbaa !9
  %24 = sub nsw i32 0, %23
  store i32 %24, ptr %3, align 4
  store i32 1, ptr %8, align 4
  br label %32

25:                                               ; preds = %2
  %26 = load i32, ptr %5, align 4, !tbaa !9
  %27 = zext i32 %26 to i64
  %28 = icmp eq i64 %27, 1074026002
  %29 = zext i1 %28 to i32
  %30 = load ptr, ptr %4, align 8, !tbaa !4
  %31 = getelementptr inbounds nuw %struct.V4L2Context, ptr %30, i32 0, i32 10
  store i32 %29, ptr %31, align 4, !tbaa !26
  store i32 0, ptr %3, align 4
  store i32 1, ptr %8, align 4
  br label %32

32:                                               ; preds = %25, %21
  call void @llvm.lifetime.end.p0(i64 4, ptr %7) #8
  call void @llvm.lifetime.end.p0(i64 4, ptr %6) #8
  %33 = load i32, ptr %3, align 4
  ret i32 %33
}