; Function Attrs: nounwind uwtable
define range(i32 -2147483647, -2147483648) i32 @ff_v4l2_context_set_status(ptr noundef captures(none) %0, i32 noundef %1) local_unnamed_addr #0 {
  %3 = alloca i32, align 4
  call void @llvm.lifetime.start.p0(i64 4, ptr nonnull %3) #8
  %4 = getelementptr inbounds nuw i8, ptr %0, i64 8
  %5 = load i32, ptr %4, align 8, !tbaa !4
  store i32 %5, ptr %3, align 4, !tbaa !14
  %switch.tableidx = add i32 %5, -2
  %6 = icmp ult i32 %switch.tableidx, 13
  br i1 %6, label %switch.lookup, label %ctx_to_m2mctx.exit

switch.lookup:                                    ; preds = %2
  %7 = zext nneg i32 %switch.tableidx to i64
  %switch.gep = getelementptr inbounds nuw [13 x i64], ptr @switch.table.ff_v4l2_context_init.34, i64 0, i64 %7
  %switch.load = load i64, ptr %switch.gep, align 8
  br label %ctx_to_m2mctx.exit

ctx_to_m2mctx.exit:                               ; preds = %2, %switch.lookup
  %.sink.i = phi i64 [ %switch.load, %switch.lookup ], [ -4104, %2 ]
  %8 = getelementptr inbounds i8, ptr %0, i64 %.sink.i
  %9 = getelementptr inbounds nuw i8, ptr %8, i64 4096
  %10 = load i32, ptr %9, align 8, !tbaa !15
  %11 = zext i32 %1 to i64
  %12 = call i32 (i32, i64, ...) @ioctl(i32 noundef %10, i64 noundef %11, ptr noundef nonnull %3) #8
  %13 = icmp slt i32 %12, 0
  br i1 %13, label %14, label %18

14:                                               ; preds = %ctx_to_m2mctx.exit
  %15 = tail call ptr @__errno_location() #9
  %16 = load i32, ptr %15, align 4, !tbaa !14
  %17 = sub nsw i32 0, %16
  br label %22

18:                                               ; preds = %ctx_to_m2mctx.exit
  %19 = icmp eq i32 %1, 1074026002
  %20 = zext i1 %19 to i32
  %21 = getelementptr inbounds nuw i8, ptr %0, i64 260
  store i32 %20, ptr %21, align 4, !tbaa !24
  br label %22

22:                                               ; preds = %18, %14
  %.0 = phi i32 [ %17, %14 ], [ 0, %18 ]
  call void @llvm.lifetime.end.p0(i64 4, ptr nonnull %3) #8
  ret i32 %.0
}